; Function Attrs: nounwind uwtable
define dso_local noundef ptr @hashfd_throughput(i32 noundef %0, ptr noundef %1, ptr noundef %2) local_unnamed_addr #0 {
  %4 = tail call ptr @xmalloc(i64 noundef 2488) #13
  store i32 %0, ptr %4, align 8, !tbaa !23
  %5 = getelementptr inbounds nuw i8, ptr %4, i64 4
  store i32 -1, ptr %5, align 4, !tbaa !20
  %6 = getelementptr inbounds nuw i8, ptr %4, i64 8
  store i32 0, ptr %6, align 8, !tbaa !4
  %7 = getelementptr inbounds nuw i8, ptr %4, i64 2416
  store i64 0, ptr %7, align 8, !tbaa !25
  %8 = getelementptr inbounds nuw i8, ptr %4, i64 2424
  store ptr %2, ptr %8, align 8, !tbaa !26
  %9 = getelementptr inbounds nuw i8, ptr %4, i64 2432
  store ptr %1, ptr %9, align 8, !tbaa !22
  %10 = getelementptr inbounds nuw i8, ptr %4, i64 2440
  store i32 0, ptr %10, align 8, !tbaa !30
  %11 = getelementptr inbounds nuw i8, ptr %4, i64 2480
  store i32 0, ptr %11, align 8, !tbaa !14
  %12 = load ptr, ptr @the_repository, align 8, !tbaa !34
  %13 = getelementptr inbounds nuw i8, ptr %12, i64 400
  %14 = load ptr, ptr %13, align 8, !tbaa !36
  %15 = tail call ptr @unsafe_hash_algo(ptr noundef %14) #13
  %16 = getelementptr inbounds nuw i8, ptr %4, i64 2472
  store ptr %15, ptr %16, align 8, !tbaa !15
  %17 = getelementptr inbounds nuw i8, ptr %15, i64 40
  %18 = load ptr, ptr %17, align 8, !tbaa !53
  %19 = getelementptr inbounds nuw i8, ptr %4, i64 16
  tail call void %18(ptr noundef nonnull %19) #13
  %20 = getelementptr inbounds nuw i8, ptr %4, i64 2448
  store i64 8192, ptr %20, align 8, !tbaa !29
  %21 = tail call ptr @xmalloc(i64 noundef 8192) #13
  %22 = getelementptr inbounds nuw i8, ptr %4, i64 2456
  store ptr %21, ptr %22, align 8, !tbaa !19
  %23 = getelementptr inbounds nuw i8, ptr %4, i64 2464
  store ptr null, ptr %23, align 8, !tbaa !21
  ret ptr %4
}